(dp1
S'output'
p2
S"<type 'exceptions.AttributeError'> 'NoneType' object has no attribute 'replace'"
p3
sS'layer'
p4
S'/home/pi/web2py/applications/piraoke/controllers/default.py'
p5
sS'code'
p6
S'# -*- coding: utf-8 -*-\n### required - do no delete\ndef user(): return dict(form=auth())\ndef download(): return response.download(request,db)\ndef call(): return service()\n### end requires\n\ndef index():\n    return dict()\n\ndef error():\n    return dict()\n\ndef videos_manage():\n    form = SQLFORM.smartgrid(db.t_videos,onupdate=auth.archive)\n    return locals()\n\ndef player():\n    import subprocess\n    youtube_url = request.vars.url.replace(\'"\', \'\')\n    youtube_url = request.vars.url.replace(\'%22\', \'\')\n    #youtube_url = "https://www.youtube.com/watch?v=1_QZETpgjJw"\n    ytdl_command = "omxplayer $(youtube-dl -g \'%s\')" % (youtube_url)\n    subprocess.call(ytdl_command, shell=True)\n    #return response.json([\'process\', {\'pid\': }])\n    return dict()\n\ndef favorites():\n    return dict()\n\ndef stats():\n    return dict()\n\ndef extra():\n    return dict()\n\nresponse._vars=response._caller(player)\n'
p7
sS'snapshot'
p8
(dp9
sS'traceback'
p10
S'Traceback (most recent call last):\n  File "/home/pi/web2py/gluon/restricted.py", line 227, in restricted\n    exec ccode in environment\n  File "/home/pi/web2py/applications/piraoke/controllers/default.py", line 37, in <module>\n  File "/home/pi/web2py/gluon/globals.py", line 417, in <lambda>\n    self._caller = lambda f: f()\n  File "/home/pi/web2py/applications/piraoke/controllers/default.py", line 20, in player\n    youtube_url = request.vars.url.replace(\'"\', \'\')\nAttributeError: \'NoneType\' object has no attribute \'replace\'\n'
p11
s.